target datalayout = "e-m:e-p270:32:32-p271:32:32-p272:64:64-i64:64-i128:128-f80:128-n8:16:32:64-S128"
target triple = "x86_64-unknown-linux-gnu"

%"class.std::__cxx11::basic_string" = type { %"struct.std::__cxx11::basic_string<char>::_Alloc_hider", i64, %union.anon }
%"struct.std::__cxx11::basic_string<char>::_Alloc_hider" = type { ptr }
%union.anon = type { i64, [8 x i8] }
%"class.google::protobuf::compiler::cpp::ParseFunctionGenerator" = type <{ ptr, ptr, ptr, %"class.absl::lts_20230802::flat_hash_map", %"class.std::unique_ptr", %"class.std::vector", %"class.std::vector.12", i32, [4 x i8] }>
%"class.absl::lts_20230802::flat_hash_map" = type { %"class.absl::lts_20230802::container_internal::raw_hash_map" }
%"class.absl::lts_20230802::container_internal::raw_hash_map" = type { %"class.absl::lts_20230802::container_internal::raw_hash_set" }
%"class.absl::lts_20230802::container_internal::raw_hash_set" = type { %"class.absl::lts_20230802::container_internal::CompressedTuple" }
%"class.absl::lts_20230802::container_internal::CompressedTuple" = type { %"struct.absl::lts_20230802::container_internal::internal_compressed_tuple::CompressedTupleImpl" }
%"struct.absl::lts_20230802::container_internal::internal_compressed_tuple::CompressedTupleImpl" = type { %"struct.absl::lts_20230802::container_internal::internal_compressed_tuple::Storage" }
%"struct.absl::lts_20230802::container_internal::internal_compressed_tuple::Storage" = type { %"class.absl::lts_20230802::container_internal::CommonFields" }
%"class.absl::lts_20230802::container_internal::CommonFields" = type { ptr, ptr, i64, %"class.absl::lts_20230802::container_internal::CompressedTuple.0" }
%"class.absl::lts_20230802::container_internal::CompressedTuple.0" = type { %"struct.absl::lts_20230802::container_internal::internal_compressed_tuple::CompressedTupleImpl.1" }
%"struct.absl::lts_20230802::container_internal::internal_compressed_tuple::CompressedTupleImpl.1" = type { %"struct.absl::lts_20230802::container_internal::internal_compressed_tuple::Storage.2" }
%"struct.absl::lts_20230802::container_internal::internal_compressed_tuple::Storage.2" = type { i64 }
%"class.std::unique_ptr" = type { %"struct.std::__uniq_ptr_data" }
%"struct.std::__uniq_ptr_data" = type { %"class.std::__uniq_ptr_impl" }
%"class.std::__uniq_ptr_impl" = type { %"class.std::tuple" }
%"class.std::tuple" = type { %"struct.std::_Tuple_impl" }
%"struct.std::_Tuple_impl" = type { %"struct.std::_Head_base.8" }
%"struct.std::_Head_base.8" = type { ptr }
%"class.std::vector" = type { %"struct.std::_Vector_base" }
%"struct.std::_Vector_base" = type { %"struct.std::_Vector_base<int, std::allocator<int>>::_Vector_impl" }
%"struct.std::_Vector_base<int, std::allocator<int>>::_Vector_impl" = type { %"struct.std::_Vector_base<int, std::allocator<int>>::_Vector_impl_data" }
%"struct.std::_Vector_base<int, std::allocator<int>>::_Vector_impl_data" = type { ptr, ptr, ptr }
%"class.std::vector.12" = type { %"struct.std::_Vector_base.13" }
%"struct.std::_Vector_base.13" = type { %"struct.std::_Vector_base<const google::protobuf::FieldDescriptor *, std::allocator<const google::protobuf::FieldDescriptor *>>::_Vector_impl" }
%"struct.std::_Vector_base<const google::protobuf::FieldDescriptor *, std::allocator<const google::protobuf::FieldDescriptor *>>::_Vector_impl" = type { %"struct.std::_Vector_base<const google::protobuf::FieldDescriptor *, std::allocator<const google::protobuf::FieldDescriptor *>>::_Vector_impl_data" }
%"struct.std::_Vector_base<const google::protobuf::FieldDescriptor *, std::allocator<const google::protobuf::FieldDescriptor *>>::_Vector_impl_data" = type { ptr, ptr, ptr }
%"class.google::protobuf::Descriptor" = type { %"class.google::protobuf::internal::SymbolBase", i8, i16, i32, ptr, ptr, ptr, ptr, ptr, ptr, ptr, ptr, ptr, ptr, ptr, ptr, ptr, ptr, i32, i32, i32, i32, i32, i32, i32, i32 }
%"class.google::protobuf::internal::SymbolBase" = type { i8 }
%"class.google::protobuf::FieldDescriptor" = type { %"class.google::protobuf::internal::SymbolBase", i8, i8, i8, i32, ptr, ptr, ptr, ptr, %union.anon.113, %union.anon.114, ptr, ptr, ptr, %union.anon.115 }
%union.anon.113 = type { ptr }
%union.anon.114 = type { ptr }
%union.anon.115 = type { i64 }
%"class.absl::lts_20230802::log_internal::NullStream" = type { i8 }
%"class.google::protobuf::Message" = type { %"class.google::protobuf::MessageLite" }
%"class.google::protobuf::MessageLite" = type { ptr, %"class.google::protobuf::internal::InternalMetadata" }
%"class.google::protobuf::internal::InternalMetadata" = type { i64 }
%"class.google::protobuf::internal::ExtensionSet" = type { ptr, i16, i16, %"union.google::protobuf::internal::ExtensionSet::AllocatedData" }
%"union.google::protobuf::internal::ExtensionSet::AllocatedData" = type { ptr }
%"class.google::protobuf::internal::HasBits" = type { [1 x i32] }
%"class.google::protobuf::internal::CachedSize" = type { i32 }
%"class.google::protobuf::RepeatedPtrField" = type { %"class.google::protobuf::internal::RepeatedPtrFieldBase" }
%"class.google::protobuf::internal::RepeatedPtrFieldBase" = type { ptr, i32, i32, ptr }
%"class.google::protobuf::FieldOptions" = type { %"class.google::protobuf::Message", %union.anon.168 }
%union.anon.168 = type { %"struct.google::protobuf::FieldOptions::Impl_" }
%"struct.google::protobuf::FieldOptions::Impl_" = type <{ %"class.google::protobuf::internal::ExtensionSet", %"class.google::protobuf::internal::HasBits", %"class.google::protobuf::internal::CachedSize", %"class.google::protobuf::RepeatedField", %"class.google::protobuf::RepeatedPtrField.169", %"class.google::protobuf::RepeatedPtrField", ptr, i32, i32, i8, i8, i8, i8, i8, i8, [2 x i8], i32, [4 x i8] }>
%"class.google::protobuf::RepeatedField" = type { i32, i32, ptr }
%"class.google::protobuf::RepeatedPtrField.169" = type { %"class.google::protobuf::internal::RepeatedPtrFieldBase" }

; Function Attrs: mustprogress nounwind uwtable
define linkonce_odr hidden noundef zeroext i1 @_ZNK6google8protobuf12FieldOptions14_internal_weakEv(ptr noundef nonnull align 8 dereferenceable(144) %this) #5 comdat align 2 {
entry:
  %this.addr = alloca ptr, align 8
  store ptr %this, ptr %this.addr, align 8
  %this1 = load ptr, ptr %this.addr, align 8
  %0 = getelementptr inbounds %"class.google::protobuf::FieldOptions", ptr %this1, i32 0, i32 1
  %weak_ = getelementptr inbounds %"struct.google::protobuf::FieldOptions::Impl_", ptr %0, i32 0, i32 13
  %1 = load i8, ptr %weak_, align 4
  %tobool = trunc i8 %1 to i1
  ret i1 %tobool
}

; Function Attrs: mustprogress nounwind uwtable
define linkonce_odr hidden noundef nonnull align 1 dereferenceable(1) ptr @_ZN4absl12lts_2023080212log_internal10NullStream14InternalStreamEv(ptr noundef nonnull align 1 dereferenceable(1) %this) #5 comdat align 2 {
entry:
  %this.addr = alloca ptr, align 8
  store ptr %this, ptr %this.addr, align 8
  %this1 = load ptr, ptr %this.addr, align 8
  ret ptr %this1
}

; Function Attrs: mustprogress uwtable
define linkonce_odr hidden noundef zeroext i1 @_ZNK6google8protobuf12FieldOptions4weakEv(ptr noundef nonnull align 8 dereferenceable(144) %this) #4 comdat align 2 {
entry:
  %this.addr = alloca ptr, align 8
  store ptr %this, ptr %this.addr, align 8
  %this1 = load ptr, ptr %this.addr, align 8
  %call = call noundef zeroext i1 @_ZNK6google8protobuf12FieldOptions14_internal_weakEv(ptr noundef nonnull align 8 dereferenceable(144) %this1)
  ret i1 %call
}

; Function Attrs: mustprogress nounwind uwtable
define linkonce_odr hidden noundef nonnull align 8 dereferenceable(144) ptr @_ZNK6google8protobuf15FieldDescriptor7optionsEv(ptr noundef nonnull align 8 dereferenceable(88) %this) #5 comdat align 2 {
entry:
  %this.addr = alloca ptr, align 8
  store ptr %this, ptr %this.addr, align 8
  %this1 = load ptr, ptr %this.addr, align 8
  %options_ = getelementptr inbounds %"class.google::protobuf::FieldDescriptor", ptr %this1, i32 0, i32 11
  %0 = load ptr, ptr %options_, align 8
  ret ptr %0
}

; Function Attrs: mustprogress uwtable
define linkonce_odr hidden noundef ptr @_ZNK6google8protobuf10Descriptor5fieldEi(ptr noundef nonnull align 8 dereferenceable(152) %this, i32 noundef %index) #4 comdat align 2 {
entry:
  %this.addr = alloca ptr, align 8
  %index.addr = alloca i32, align 4
  %ref.tmp = alloca %"class.absl::lts_20230802::log_internal::NullStream", align 1
  %ref.tmp4 = alloca %"class.absl::lts_20230802::log_internal::NullStream", align 1
  store ptr %this, ptr %this.addr, align 8
  store i32 %index, ptr %index.addr, align 4
  %this1 = load ptr, ptr %this.addr, align 8
  br label %while.cond

while.cond:                                       ; preds = %while.body, %entry
  br i1 false, label %while.body, label %while.end

while.body:                                       ; preds = %while.cond
  %call = call noundef nonnull align 1 dereferenceable(1) ptr @_ZN4absl12lts_2023080212log_internal10NullStream14InternalStreamEv(ptr noundef nonnull align 1 dereferenceable(1) %ref.tmp)
  br label %while.cond, !llvm.loop !15

while.end:                                        ; preds = %while.cond
  br label %while.cond2

while.cond2:                                      ; preds = %while.body3, %while.end
  br i1 false, label %while.body3, label %while.end6

while.body3:                                      ; preds = %while.cond2
  %call5 = call noundef nonnull align 1 dereferenceable(1) ptr @_ZN4absl12lts_2023080212log_internal10NullStream14InternalStreamEv(ptr noundef nonnull align 1 dereferenceable(1) %ref.tmp4)
  br label %while.cond2, !llvm.loop !16

while.end6:                                       ; preds = %while.cond2
  %fields_ = getelementptr inbounds %"class.google::protobuf::Descriptor", ptr %this1, i32 0, i32 10
  %0 = load ptr, ptr %fields_, align 8
  %1 = load i32, ptr %index.addr, align 4
  %idx.ext = sext i32 %1 to i64
  %add.ptr = getelementptr inbounds %"class.google::protobuf::FieldDescriptor", ptr %0, i64 %idx.ext
  ret ptr %add.ptr
}

; Function Attrs: mustprogress nounwind uwtable
define linkonce_odr hidden noundef i32 @_ZNK6google8protobuf10Descriptor11field_countEv(ptr noundef nonnull align 8 dereferenceable(152) %this) #5 comdat align 2 {
entry:
  %this.addr = alloca ptr, align 8
  store ptr %this, ptr %this.addr, align 8
  %this1 = load ptr, ptr %this.addr, align 8
  %field_count_ = getelementptr inbounds %"class.google::protobuf::Descriptor", ptr %this1, i32 0, i32 3
  %0 = load i32, ptr %field_count_, align 4
  ret i32 %0
}

; Function Attrs: mustprogress uwtable
define internal noundef zeroext i1 @_ZN6google8protobuf8compiler3cpp12_GLOBAL__N_113HasWeakFieldsEPKNS0_10DescriptorE(ptr noundef %descriptor) #4 {
entry:
  %retval = alloca i1, align 1
  %descriptor.addr = alloca ptr, align 8
  %i = alloca i32, align 4
  store ptr %descriptor, ptr %descriptor.addr, align 8
  store i32 0, ptr %i, align 4
  br label %for.cond

for.cond:                                         ; preds = %for.inc, %entry
  %0 = load i32, ptr %i, align 4
  %1 = load ptr, ptr %descriptor.addr, align 8
  %call = call noundef i32 @_ZNK6google8protobuf10Descriptor11field_countEv(ptr noundef nonnull align 8 dereferenceable(152) %1)
  %cmp = icmp slt i32 %0, %call
  br i1 %cmp, label %for.body, label %for.end

for.body:                                         ; preds = %for.cond
  %2 = load ptr, ptr %descriptor.addr, align 8
  %3 = load i32, ptr %i, align 4
  %call1 = call noundef ptr @_ZNK6google8protobuf10Descriptor5fieldEi(ptr noundef nonnull align 8 dereferenceable(152) %2, i32 noundef %3)
  %call2 = call noundef nonnull align 8 dereferenceable(144) ptr @_ZNK6google8protobuf15FieldDescriptor7optionsEv(ptr noundef nonnull align 8 dereferenceable(88) %call1)
  %call3 = call noundef zeroext i1 @_ZNK6google8protobuf12FieldOptions4weakEv(ptr noundef nonnull align 8 dereferenceable(144) %call2)
  br i1 %call3, label %if.then, label %if.end

if.then:                                          ; preds = %for.body
  store i1 true, ptr %retval, align 1
  br label %return

if.end:                                           ; preds = %for.body
  br label %for.inc

for.inc:                                          ; preds = %if.end
  %4 = load i32, ptr %i, align 4
  %inc = add nsw i32 %4, 1
  store i32 %inc, ptr %i, align 4
  br label %for.cond, !llvm.loop !4

for.end:                                          ; preds = %for.cond
  store i1 false, ptr %retval, align 1
  br label %return

return:                                           ; preds = %for.end, %if.then
  %5 = load i1, ptr %retval, align 1
  ret i1 %5
}

; Function Attrs: mustprogress uwtable
define linkonce_odr hidden noundef zeroext i1 @_ZN6google8protobuf8compiler3cpp18HasSimpleBaseClassEPKNS0_10DescriptorERKNS2_7OptionsE(ptr noundef %desc, ptr noundef nonnull align 8 dereferenceable(206) %options) #4 comdat {
entry:
  %desc.addr = alloca ptr, align 8
  %options.addr = alloca ptr, align 8
  %ref.tmp = alloca %"class.std::__cxx11::basic_string", align 8
  store ptr %desc, ptr %desc.addr, align 8
  store ptr %options, ptr %options.addr, align 8
  %0 = load ptr, ptr %desc.addr, align 8
  %1 = load ptr, ptr %options.addr, align 8
  call void @_ZN6google8protobuf8compiler3cpp15SimpleBaseClassB5cxx11EPKNS0_10DescriptorERKNS2_7OptionsE(ptr sret(%"class.std::__cxx11::basic_string") align 8 %ref.tmp, ptr noundef %0, ptr noundef nonnull align 8 dereferenceable(206) %1)
  %call = call noundef zeroext i1 @_ZNKSt7__cxx1112basic_stringIcSt11char_traitsIcESaIcEE5emptyEv(ptr noundef nonnull align 8 dereferenceable(32) %ref.tmp) #3
  %lnot = xor i1 %call, true
  call void @_ZNSt7__cxx1112basic_stringIcSt11char_traitsIcESaIcEED1Ev(ptr noundef nonnull align 8 dereferenceable(32) %ref.tmp) #3
  ret i1 %lnot
}

; Function Attrs: mustprogress uwtable
define hidden noundef zeroext i1 @_ZNK6google8protobuf8compiler3cpp22ParseFunctionGenerator23should_generate_tctableEv(ptr noundef nonnull align 8 dereferenceable(116) %this) #4 align 2 {
entry:
  %retval = alloca i1, align 1
  %this.addr = alloca ptr, align 8
  store ptr %this, ptr %this.addr, align 8
  %this1 = load ptr, ptr %this.addr, align 8
  %descriptor_ = getelementptr inbounds %"class.google::protobuf::compiler::cpp::ParseFunctionGenerator", ptr %this1, i32 0, i32 0
  %0 = load ptr, ptr %descriptor_, align 8
  %options_ = getelementptr inbounds %"class.google::protobuf::compiler::cpp::ParseFunctionGenerator", ptr %this1, i32 0, i32 2
  %1 = load ptr, ptr %options_, align 8
  %call = call noundef zeroext i1 @_ZN6google8protobuf8compiler3cpp18HasSimpleBaseClassEPKNS0_10DescriptorERKNS2_7OptionsE(ptr noundef %0, ptr noundef nonnull align 8 dereferenceable(206) %1)
  br i1 %call, label %if.then, label %lor.lhs.false

lor.lhs.false:                                    ; preds = %entry
  %descriptor_2 = getelementptr inbounds %"class.google::protobuf::compiler::cpp::ParseFunctionGenerator", ptr %this1, i32 0, i32 0
  %2 = load ptr, ptr %descriptor_2, align 8
  %call3 = call noundef zeroext i1 @_ZN6google8protobuf8compiler3cpp12_GLOBAL__N_113HasWeakFieldsEPKNS0_10DescriptorE(ptr noundef %2)
  br i1 %call3, label %if.then, label %if.end

if.then:                                          ; preds = %lor.lhs.false, %entry
  store i1 false, ptr %retval, align 1
  br label %return

if.end:                                           ; preds = %lor.lhs.false
  store i1 true, ptr %retval, align 1
  br label %return

return:                                           ; preds = %if.end, %if.then
  %3 = load i1, ptr %retval, align 1
  ret i1 %3
}

; Function Attrs: mustprogress uwtable
define hidden void @_ZN6google8protobuf8compiler3cpp22ParseFunctionGenerator23GenerateDataDefinitionsEPNS0_2io7PrinterE(ptr noundef nonnull align 8 dereferenceable(116) %this, ptr noundef %printer) #4 align 2 {
entry:
  %this.addr = alloca ptr, align 8
  %printer.addr = alloca ptr, align 8
  store ptr %this, ptr %this.addr, align 8
  store ptr %printer, ptr %printer.addr, align 8
  %this1 = load ptr, ptr %this.addr, align 8
  %call = call noundef zeroext i1 @_ZNK6google8protobuf8compiler3cpp22ParseFunctionGenerator23should_generate_tctableEv(ptr noundef nonnull align 8 dereferenceable(116) %this1)
  br i1 %call, label %if.end, label %if.then

if.then:                                          ; preds = %entry
  br label %return

if.end:                                           ; preds = %entry
  %0 = load ptr, ptr %printer.addr, align 8
  call void @_ZN6google8protobuf8compiler3cpp22ParseFunctionGenerator21GenerateTailCallTableEPNS0_2io7PrinterE(ptr noundef nonnull align 8 dereferenceable(116) %this1, ptr noundef %0)
  br label %return

return:                                           ; preds = %if.end, %if.then
  ret void
}