; Function Attrs: mustprogress uwtable
define hidden void @_ZN6google8protobuf8compiler3cpp22ParseFunctionGenerator23GenerateDataDefinitionsEPNS0_2io7PrinterE(ptr noundef nonnull align 8 dereferenceable(116) %this, ptr noundef %printer) local_unnamed_addr #3 align 2 {
entry:
  %ref.tmp.i.i = alloca %"class.std::__cxx11::basic_string", align 8
  %0 = load ptr, ptr %this, align 8
  %options_.i = getelementptr inbounds i8, ptr %this, i64 16
  %1 = load ptr, ptr %options_.i, align 8
  call void @llvm.lifetime.start.p0(i64 32, ptr nonnull %ref.tmp.i.i)
  call void @_ZN6google8protobuf8compiler3cpp15SimpleBaseClassB5cxx11EPKNS0_10DescriptorERKNS2_7OptionsE(ptr nonnull sret(%"class.std::__cxx11::basic_string") align 8 %ref.tmp.i.i, ptr noundef %0, ptr noundef nonnull align 8 dereferenceable(206) %1)
  %call.i.i = call noundef zeroext i1 @_ZNKSt7__cxx1112basic_stringIcSt11char_traitsIcESaIcEE5emptyEv(ptr noundef nonnull align 8 dereferenceable(32) %ref.tmp.i.i) #26
  call void @_ZNSt7__cxx1112basic_stringIcSt11char_traitsIcESaIcEED1Ev(ptr noundef nonnull align 8 dereferenceable(32) %ref.tmp.i.i) #26
  call void @llvm.lifetime.end.p0(i64 32, ptr nonnull %ref.tmp.i.i)
  br i1 %call.i.i, label %lor.lhs.false.i, label %return

lor.lhs.false.i:                                  ; preds = %entry
  %2 = load ptr, ptr %this, align 8
  %field_count_.i.i.i = getelementptr inbounds i8, ptr %2, i64 4
  %3 = load i32, ptr %field_count_.i.i.i, align 4
  %cmp4.i.i = icmp sgt i32 %3, 0
  br i1 %cmp4.i.i, label %for.body.lr.ph.i.i, label %if.end

for.body.lr.ph.i.i:                               ; preds = %lor.lhs.false.i
  %fields_.i.i.i = getelementptr inbounds i8, ptr %2, i64 56
  %4 = load ptr, ptr %fields_.i.i.i, align 8
  %5 = zext nneg i32 %3 to i64
  %options_.i.i3.i = getelementptr inbounds i8, ptr %4, i64 56
  %6 = load ptr, ptr %options_.i.i3.i, align 8
  %weak_.i.i.i4.i = getelementptr inbounds i8, ptr %6, i64 132
  %7 = load i8, ptr %weak_.i.i.i4.i, align 4
  %8 = and i8 %7, 1
  %tobool.i.i.not.i5.i = icmp eq i8 %8, 0
  br i1 %tobool.i.i.not.i5.i, label %for.cond.i.i, label %return

for.cond.i.i:                                     ; preds = %for.body.lr.ph.i.i, %for.body.i.i
  %indvars.iv.i6.i = phi i64 [ %indvars.iv.next.i.i, %for.body.i.i ], [ 0, %for.body.lr.ph.i.i ]
  %indvars.iv.next.i.i = add nuw nsw i64 %indvars.iv.i6.i, 1
  %exitcond.not.i.i = icmp eq i64 %indvars.iv.next.i.i, %5
  br i1 %exitcond.not.i.i, label %if.end, label %for.body.i.i, !llvm.loop !12

for.body.i.i:                                     ; preds = %for.cond.i.i
  %options_.i.i.i = getelementptr inbounds %"class.google::protobuf::FieldDescriptor", ptr %4, i64 %indvars.iv.next.i.i, i32 11
  %9 = load ptr, ptr %options_.i.i.i, align 8
  %weak_.i.i.i.i = getelementptr inbounds i8, ptr %9, i64 132
  %10 = load i8, ptr %weak_.i.i.i.i, align 4
  %11 = and i8 %10, 1
  %tobool.i.i.not.i.i = icmp eq i8 %11, 0
  br i1 %tobool.i.i.not.i.i, label %for.cond.i.i, label %_ZNK6google8protobuf8compiler3cpp22ParseFunctionGenerator23should_generate_tctableEv.exit, !llvm.loop !12

_ZNK6google8protobuf8compiler3cpp22ParseFunctionGenerator23should_generate_tctableEv.exit: ; preds = %for.body.i.i
  %cmp.i.le.i = icmp ult i64 %indvars.iv.next.i.i, %5
  %12 = freeze i1 %cmp.i.le.i
  br i1 %12, label %return, label %if.end

if.end:                                           ; preds = %for.cond.i.i, %lor.lhs.false.i, %_ZNK6google8protobuf8compiler3cpp22ParseFunctionGenerator23should_generate_tctableEv.exit
  call void @_ZN6google8protobuf8compiler3cpp22ParseFunctionGenerator21GenerateTailCallTableEPNS0_2io7PrinterE(ptr noundef nonnull align 8 dereferenceable(116) %this, ptr noundef %printer)
  br label %return

return:                                           ; preds = %for.body.lr.ph.i.i, %entry, %_ZNK6google8protobuf8compiler3cpp22ParseFunctionGenerator23should_generate_tctableEv.exit, %if.end
  ret void
}